Certificate:
    Data:
        Version: 3 (0x2)
        Serial Number: 0 (0x0)
        Signature Algorithm: sha1WithRSAEncryption
        Issuer: C=CN, ST=GD, L=SZ, O=SE.SHENGHUO, OU=SE.VUESSR, CN=SE.VUESSR/emailAddress=carlli@seshenghuo.com
        Validity
            Not Before: Feb 20 09:26:54 2019 GMT
            Not After : Feb 20 09:26:54 2020 GMT
        Subject: C=CN, ST=GD, O=SE.SHENGHUO, OU=SE.VUESSR, CN=SE.VUESSR/emailAddress=carlli@seshenghuo.com
        Subject Public Key Info:
            Public Key Algorithm: rsaEncryption
            RSA Public Key: (1024 bit)
                Modulus (1024 bit):
                    00:bd:29:89:51:90:6c:dd:00:e4:59:da:67:80:69:
                    18:e0:1f:74:15:35:9c:3f:d4:10:44:4f:c8:71:eb:
                    80:f0:53:e2:7c:3f:48:50:2d:f5:0e:14:ed:90:c9:
                    46:c8:95:94:3e:98:9d:2a:15:06:0f:c3:91:fb:52:
                    4e:ba:57:d3:5d:4c:b8:96:e8:ef:91:39:a5:83:d7:
                    29:ee:76:9e:29:55:fd:d5:a5:3c:ba:ab:da:1c:ae:
                    1c:6f:d0:19:60:30:97:7d:5f:df:c2:23:03:6f:38:
                    a2:f4:d9:c0:dc:42:53:60:dc:20:8d:1a:f1:e4:9b:
                    ec:38:fd:1f:0e:75:0a:20:6d
                Exponent: 65537 (0x10001)
        X509v3 extensions:
            X509v3 Basic Constraints: 
                CA:FALSE
            Netscape Comment: 
                OpenSSL Generated Certificate
            X509v3 Subject Key Identifier: 
                4F:EA:3D:1F:8A:55:8B:26:FC:AF:F8:0F:5F:15:52:22:80:33:3E:37
            X509v3 Authority Key Identifier: 
                keyid:55:4A:7F:65:A3:09:21:8B:2D:6F:7F:B2:76:D2:14:67:D7:36:6D:6D
                DirName:/C=CN/ST=GD/L=SZ/O=SE.SHENGHUO/OU=SE.VUESSR/CN=SE.VUESSR/emailAddress=carlli@seshenghuo.com
                serial:EB:36:95:36:F7:81:07:A9

    Signature Algorithm: sha1WithRSAEncryption
        5c:25:57:03:a4:63:3d:f1:16:23:91:d7:9b:e4:6b:66:4a:a1:
        2a:19:1a:96:c8:be:11:81:2f:86:88:06:e6:b2:ad:b9:01:c9:
        fa:51:ba:66:bd:dd:6b:12:59:73:6d:e9:20:da:da:f6:14:9a:
        2b:10:9d:75:36:30:f5:4f:19:bd:ef:b7:d0:d7:50:3a:c6:bc:
        fa:f5:24:ac:32:25:26:96:65:92:23:37:79:32:3b:2c:38:4a:
        29:81:c6:14:94:d0:dc:97:be:f9:c4:95:1b:f4:2e:21:19:f2:
        94:7a:0a:83:43:ed:19:11:7f:3b:e3:96:38:b8:6c:ce:20:eb:
        c9:36
-----BEGIN CERTIFICATE-----
MIIDoTCCAwqgAwIBAgIBADANBgkqhkiG9w0BAQUFADCBizELMAkGA1UEBhMCQ04x
CzAJBgNVBAgTAkdEMQswCQYDVQQHEwJTWjEUMBIGA1UEChMLU0UuU0hFTkdIVU8x
EjAQBgNVBAsTCVNFLlZVRVNTUjESMBAGA1UEAxMJU0UuVlVFU1NSMSQwIgYJKoZI
hvcNAQkBFhVjYXJsbGlAc2VzaGVuZ2h1by5jb20wHhcNMTkwMjIwMDkyNjU0WhcN
MjAwMjIwMDkyNjU0WjB+MQswCQYDVQQGEwJDTjELMAkGA1UECBMCR0QxFDASBgNV
BAoTC1NFLlNIRU5HSFVPMRIwEAYDVQQLEwlTRS5WVUVTU1IxEjAQBgNVBAMTCVNF
LlZVRVNTUjEkMCIGCSqGSIb3DQEJARYVY2FybGxpQHNlc2hlbmdodW8uY29tMIGf
MA0GCSqGSIb3DQEBAQUAA4GNADCBiQKBgQC9KYlRkGzdAORZ2meAaRjgH3QVNZw/
1BBET8hx64DwU+J8P0hQLfUOFO2QyUbIlZQ+mJ0qFQYPw5H7Uk66V9NdTLiW6O+R
OaWD1ynudp4pVf3VpTy6q9ocrhxv0BlgMJd9X9/CIwNvOKL02cDcQlNg3CCNGvHk
m+w4/R8OdQogbQIDAQABo4IBHzCCARswCQYDVR0TBAIwADAsBglghkgBhvhCAQ0E
HxYdT3BlblNTTCBHZW5lcmF0ZWQgQ2VydGlmaWNhdGUwHQYDVR0OBBYEFE/qPR+K
VYsm/K/4D18VUiKAMz43MIHABgNVHSMEgbgwgbWAFFVKf2WjCSGLLW9/snbSFGfX
Nm1toYGRpIGOMIGLMQswCQYDVQQGEwJDTjELMAkGA1UECBMCR0QxCzAJBgNVBAcT
AlNaMRQwEgYDVQQKEwtTRS5TSEVOR0hVTzESMBAGA1UECxMJU0UuVlVFU1NSMRIw
EAYDVQQDEwlTRS5WVUVTU1IxJDAiBgkqhkiG9w0BCQEWFWNhcmxsaUBzZXNoZW5n
aHVvLmNvbYIJAOs2lTb3gQepMA0GCSqGSIb3DQEBBQUAA4GBAFwlVwOkYz3xFiOR
15vka2ZKoSoZGpbIvhGBL4aIBuayrbkByfpRuma93WsSWXNt6SDa2vYUmisQnXU2
MPVPGb3vt9DXUDrGvPr1JKwyJSaWZZIjN3kyOyw4SimBxhSU0NyXvvnElRv0LiEZ
8pR6CoND7RkRfzvjlji4bM4g68k2
-----END CERTIFICATE-----
